; Function Attrs: mustprogress nounwind memory(readwrite, inaccessiblemem: write) uwtable
define internal fastcc void @_ZZNK8facebook5velox9functions12_GLOBAL__N_119DecimalBaseFunctionIlllNS2_6DivideEE5applyERKNS0_17SelectivityVectorERSt6vectorISt10shared_ptrINS0_10BaseVectorEESaISC_EERKSA_IKNS0_4TypeEERNS0_4exec7EvalCtxERSC_ENKUlT_E2_clIiEEDaSP_(ptr nocapture noundef nonnull readonly align 8 dereferenceable(32) %this, i32 noundef %row) unnamed_addr #17 align 2 {
entry:
  %0 = load ptr, ptr %this, align 8
  %1 = getelementptr inbounds i8, ptr %this, i64 8
  %2 = load ptr, ptr %1, align 8
  %3 = load ptr, ptr %2, align 8
  %idxprom = sext i32 %row to i64
  %arrayidx = getelementptr inbounds i64, ptr %3, i64 %idxprom
  %4 = getelementptr inbounds i8, ptr %this, i64 16
  %5 = load ptr, ptr %4, align 8
  %6 = load ptr, ptr %5, align 8
  %data_.i = getelementptr inbounds i8, ptr %6, i64 16
  %7 = load ptr, ptr %data_.i, align 8
  %isIdentityMapping_.i.i = getelementptr inbounds i8, ptr %6, i64 58
  %8 = load i8, ptr %isIdentityMapping_.i.i, align 2
  %9 = and i8 %8, 1
  %tobool.not.i.i = icmp eq i8 %9, 0
  br i1 %tobool.not.i.i, label %if.end.i.i, label %_ZNK8facebook5velox13DecodedVector7valueAtIlEET_i.exit

if.end.i.i:                                       ; preds = %entry
  %isConstantMapping_.i.i = getelementptr inbounds i8, ptr %6, i64 59
  %10 = load i8, ptr %isConstantMapping_.i.i, align 1
  %11 = and i8 %10, 1
  %tobool2.not.i.i = icmp eq i8 %11, 0
  br i1 %tobool2.not.i.i, label %if.end4.i.i, label %if.then3.i.i

if.then3.i.i:                                     ; preds = %if.end.i.i
  %constantIndex_.i.i = getelementptr inbounds i8, ptr %6, i64 64
  %12 = load i32, ptr %constantIndex_.i.i, align 8
  br label %_ZNK8facebook5velox13DecodedVector7valueAtIlEET_i.exit

if.end4.i.i:                                      ; preds = %if.end.i.i
  %indices_.i.i = getelementptr inbounds i8, ptr %6, i64 8
  %13 = load ptr, ptr %indices_.i.i, align 8
  %arrayidx.i.i = getelementptr inbounds i32, ptr %13, i64 %idxprom
  %14 = load i32, ptr %arrayidx.i.i, align 4
  br label %_ZNK8facebook5velox13DecodedVector7valueAtIlEET_i.exit

_ZNK8facebook5velox13DecodedVector7valueAtIlEET_i.exit: ; preds = %entry, %if.then3.i.i, %if.end4.i.i
  %retval.0.i.i = phi i32 [ %12, %if.then3.i.i ], [ %14, %if.end4.i.i ], [ %row, %entry ]
  %idxprom.i = sext i32 %retval.0.i.i to i64
  %arrayidx.i = getelementptr inbounds i64, ptr %7, i64 %idxprom.i
  %15 = load i64, ptr %arrayidx.i, align 8
  %16 = getelementptr inbounds i8, ptr %this, i64 24
  %17 = load ptr, ptr %16, align 8
  %18 = load ptr, ptr %17, align 8
  %data_.i3 = getelementptr inbounds i8, ptr %18, i64 16
  %19 = load ptr, ptr %data_.i3, align 8
  %isIdentityMapping_.i.i4 = getelementptr inbounds i8, ptr %18, i64 58
  %20 = load i8, ptr %isIdentityMapping_.i.i4, align 2
  %21 = and i8 %20, 1
  %tobool.not.i.i5 = icmp eq i8 %21, 0
  br i1 %tobool.not.i.i5, label %if.end.i.i9, label %_ZNK8facebook5velox13DecodedVector7valueAtIlEET_i.exit18

if.end.i.i9:                                      ; preds = %_ZNK8facebook5velox13DecodedVector7valueAtIlEET_i.exit
  %isConstantMapping_.i.i10 = getelementptr inbounds i8, ptr %18, i64 59
  %22 = load i8, ptr %isConstantMapping_.i.i10, align 1
  %23 = and i8 %22, 1
  %tobool2.not.i.i11 = icmp eq i8 %23, 0
  br i1 %tobool2.not.i.i11, label %if.end4.i.i14, label %if.then3.i.i12

if.then3.i.i12:                                   ; preds = %if.end.i.i9
  %constantIndex_.i.i13 = getelementptr inbounds i8, ptr %18, i64 64
  %24 = load i32, ptr %constantIndex_.i.i13, align 8
  br label %_ZNK8facebook5velox13DecodedVector7valueAtIlEET_i.exit18

if.end4.i.i14:                                    ; preds = %if.end.i.i9
  %indices_.i.i15 = getelementptr inbounds i8, ptr %18, i64 8
  %25 = load ptr, ptr %indices_.i.i15, align 8
  %arrayidx.i.i17 = getelementptr inbounds i32, ptr %25, i64 %idxprom
  %26 = load i32, ptr %arrayidx.i.i17, align 4
  br label %_ZNK8facebook5velox13DecodedVector7valueAtIlEET_i.exit18

_ZNK8facebook5velox13DecodedVector7valueAtIlEET_i.exit18: ; preds = %_ZNK8facebook5velox13DecodedVector7valueAtIlEET_i.exit, %if.then3.i.i12, %if.end4.i.i14
  %retval.0.i.i6 = phi i32 [ %24, %if.then3.i.i12 ], [ %26, %if.end4.i.i14 ], [ %row, %_ZNK8facebook5velox13DecodedVector7valueAtIlEET_i.exit ]
  %idxprom.i7 = sext i32 %retval.0.i.i6 to i64
  %arrayidx.i8 = getelementptr inbounds i64, ptr %19, i64 %idxprom.i7
  %27 = load i64, ptr %arrayidx.i8, align 8
  %cmp.not.i.i = icmp eq i64 %27, 0
  br i1 %cmp.not.i.i, label %if.then.i3.i, label %if.end.i.i19

if.then.i3.i:                                     ; preds = %_ZNK8facebook5velox13DecodedVector7valueAtIlEET_i.exit18
  tail call void @llvm.trap()
  unreachable

if.end.i.i19:                                     ; preds = %_ZNK8facebook5velox13DecodedVector7valueAtIlEET_i.exit18
  %aRescale_ = getelementptr inbounds i8, ptr %0, i64 8
  %28 = load i8, ptr %aRescale_, align 8
  %spec.select.i.i = tail call i64 @llvm.abs.i64(i64 %15, i1 true)
  %idxprom.i.i20 = zext i8 %28 to i64
  %arrayidx.i.i21 = getelementptr inbounds [39 x i128], ptr @_ZN8facebook5velox11DecimalUtil12kPowersOfTenE, i64 0, i64 %idxprom.i.i20
  %29 = load i128, ptr %arrayidx.i.i21, align 16
  %conv.i.i = trunc i128 %29 to i64
  %30 = tail call { i64, i1 } @llvm.smul.with.overflow.i64(i64 %spec.select.i.i, i64 %conv.i.i)
  %31 = extractvalue { i64, i1 } %30, 1
  br i1 %31, label %if.then.i.i.i, label %_ZN8facebook5velox11DecimalUtil17divideWithRoundUpIlllEET_RS3_RKT0_RKT1_bhh.exit.i

if.then.i.i.i:                                    ; preds = %if.end.i.i19
  tail call void @llvm.trap()
  unreachable

_ZN8facebook5velox11DecimalUtil17divideWithRoundUpIlllEET_RS3_RKT0_RKT1_bhh.exit.i: ; preds = %if.end.i.i19
  %cmp4.i.i = icmp slt i64 %27, 0
  %cmp1.i.i = icmp slt i64 %15, 0
  %spec.select11.i.i = select i1 %cmp1.i.i, i32 -1, i32 1
  %mul6.i.i = sub nsw i32 0, %spec.select11.i.i
  %resultSign.1.i.i = select i1 %cmp4.i.i, i32 %mul6.i.i, i32 %spec.select11.i.i
  %unsignedDivisor.0.i.i = tail call i64 @llvm.abs.i64(i64 %27, i1 true)
  %32 = extractvalue { i64, i1 } %30, 0
  %div.i.i = sdiv i64 %32, %unsignedDivisor.0.i.i
  %rem.i.i = srem i64 %32, %unsignedDivisor.0.i.i
  %mul9.i.i = shl nsw i64 %rem.i.i, 1
  %cmp10.not.i.i = icmp sge i64 %mul9.i.i, %unsignedDivisor.0.i.i
  %inc.i.i = zext i1 %cmp10.not.i.i to i64
  %quotient.0.i.i = add nsw i64 %div.i.i, %inc.i.i
  %conv13.i.i = sext i32 %resultSign.1.i.i to i64
  %mul14.i.i = mul nsw i64 %quotient.0.i.i, %conv13.i.i
  store i64 %mul14.i.i, ptr %arrayidx, align 8
  %33 = ashr i64 %mul14.i.i, 63
  %value.i.sroa.2.0.insert.ext.i = zext i64 %33 to i128
  %value.i.sroa.2.0.insert.shift.i = shl nuw i128 %value.i.sroa.2.0.insert.ext.i, 64
  %value.i.sroa.0.0.insert.ext.i = zext i64 %mul14.i.i to i128
  %value.i.sroa.0.0.insert.insert.i = add nuw nsw i128 %value.i.sroa.0.0.insert.ext.i, -100000000000000000000000000000000000000
  %34 = add i128 %value.i.sroa.0.0.insert.insert.i, %value.i.sroa.2.0.insert.shift.i
  %35 = icmp ult i128 %34, 140282366920938463463374607431768211457
  br i1 %35, label %if.then.i.i, label %_ZN8facebook5velox9functions12_GLOBAL__N_16Divide5applyIlllEEvRT_RKT0_RKT1_hh.exit

if.then.i.i:                                      ; preds = %_ZN8facebook5velox11DecimalUtil17divideWithRoundUpIlllEET_RS3_RKT0_RKT1_bhh.exit.i
  tail call void @llvm.trap()
  unreachable

_ZN8facebook5velox9functions12_GLOBAL__N_16Divide5applyIlllEEvRT_RKT0_RKT1_hh.exit: ; preds = %_ZN8facebook5velox11DecimalUtil17divideWithRoundUpIlllEET_RS3_RKT0_RKT1_bhh.exit.i
  ret void
}